Certificate:
    Data:
        Version: 3 (0x2)
        Serial Number: 4111 (0x100f)
    Signature Algorithm: ecdsa-with-SHA384
        Issuer: C=UA, ST=Kyiv, O=SYNRC, CN=CA
        Validity
            Not Before: Aug 29 09:48:51 2019 GMT
            Not After : Aug 28 09:48:51 2020 GMT
        Subject: C=UA, ST=Kyiv, O=SYNRC, CN=XIO
        Subject Public Key Info:
            Public Key Algorithm: id-ecPublicKey
                Public-Key: (384 bit)
                pub: 
                    04:8c:f2:fc:d1:8f:ad:97:12:78:1c:62:bb:e2:67:
                    96:7b:cd:ef:8e:da:d6:72:f9:41:a9:80:59:89:98:
                    e1:e9:f9:42:63:ac:0d:39:3e:df:39:e7:8b:e5:d7:
                    ad:71:1c:22:71:cc:1c:e0:f7:99:36:b0:32:36:a7:
                    c9:24:df:bf:70:46:8f:e8:3b:cb:5e:7a:d0:d4:c1:
                    80:3a:ae:5e:a8:8f:a4:ff:5a:45:89:a9:88:9f:c3:
                    0b:62:ce:43:52:73:40
                ASN1 OID: secp384r1
                NIST CURVE: P-384
        X509v3 extensions:
            X509v3 Basic Constraints: 
                CA:FALSE
            Netscape Cert Type: 
                SSL Server
            Netscape Comment: 
                Synrc Server Certificate
            X509v3 Subject Key Identifier: 
                AB:8D:CC:81:1A:3A:A7:77:17:C2:BA:B4:E7:0E:EC:93:30:BC:F9:89
            X509v3 Authority Key Identifier: 
                keyid:A7:E9:27:24:6F:87:8F:1E:90:19:29:8B:DD:73:6B:54:EF:00:E5:DF
                DirName:/C=UA/ST=Kyiv/O=SYNRC/CN=CA
                serial:BE:E6:45:0D:D5:E5:77:D1

            X509v3 Key Usage: critical
                Digital Signature, Key Encipherment
            X509v3 Extended Key Usage: 
                TLS Web Server Authentication
            X509v3 CRL Distribution Points: 

                Full Name:
                  URI:http://crl.n2o.dev:8081/eccroot.crl

            Authority Information Access: 
                CA Issuers - URI:http://crl.n2o.dev:8081/eccroot.crt
                OCSP - URI:http://ocsp.n2o.dev:8081/

            X509v3 Subject Alternative Name: 
                DNS:localhost
    Signature Algorithm: ecdsa-with-SHA384
         30:65:02:31:00:83:4d:00:25:f0:ee:c4:8c:24:e7:9c:66:cc:
         48:9e:10:d2:9d:ca:81:e3:f5:a2:2b:2a:5f:6a:59:98:cc:6d:
         eb:91:93:0b:18:f7:83:a7:f8:78:9d:30:a3:2d:f5:ed:ce:02:
         30:7b:5d:a6:51:30:f2:10:f2:2d:0a:3a:d9:ee:32:9c:9f:9d:
         c7:7a:26:57:89:91:f7:c1:1b:a3:b4:05:99:d4:17:91:a0:76:
         01:62:b5:8b:a4:4e:6c:9c:75:05:b3:fa:31
-----BEGIN CERTIFICATE-----
MIIDUDCCAtagAwIBAgICEA8wCgYIKoZIzj0EAwMwOTELMAkGA1UEBhMCVUExDTAL
BgNVBAgMBEt5aXYxDjAMBgNVBAoMBVNZTlJDMQswCQYDVQQDDAJDQTAeFw0xOTA4
MjkwOTQ4NTFaFw0yMDA4MjgwOTQ4NTFaMDoxCzAJBgNVBAYTAlVBMQ0wCwYDVQQI
DARLeWl2MQ4wDAYDVQQKDAVTWU5SQzEMMAoGA1UEAwwDWElPMHYwEAYHKoZIzj0C
AQYFK4EEACIDYgAEjPL80Y+tlxJ4HGK74meWe83vjtrWcvlBqYBZiZjh6flCY6wN
OT7fOeeL5detcRwiccwc4PeZNrAyNqfJJN+/cEaP6DvLXnrQ1MGAOq5eqI+k/1pF
iamIn8MLYs5DUnNAo4IBrjCCAaowCQYDVR0TBAIwADARBglghkgBhvhCAQEEBAMC
BkAwJwYJYIZIAYb4QgENBBoWGFN5bnJjIFNlcnZlciBDZXJ0aWZpY2F0ZTAdBgNV
HQ4EFgQUq43MgRo6p3cXwrq05w7skzC8+YkwaQYDVR0jBGIwYIAUp+knJG+Hjx6Q
GSmL3XNrVO8A5d+hPaQ7MDkxCzAJBgNVBAYTAlVBMQ0wCwYDVQQIDARLeWl2MQ4w
DAYDVQQKDAVTWU5SQzELMAkGA1UEAwwCQ0GCCQC+5kUN1eV30TAOBgNVHQ8BAf8E
BAMCBaAwEwYDVR0lBAwwCgYIKwYBBQUHAwEwNAYDVR0fBC0wKzApoCegJYYjaHR0
cDovL2NybC5uMm8uZGV2OjgwODEvZWNjcm9vdC5jcmwwZgYIKwYBBQUHAQEEWjBY
MC8GCCsGAQUFBzAChiNodHRwOi8vY3JsLm4yby5kZXY6ODA4MS9lY2Nyb290LmNy
dDAlBggrBgEFBQcwAYYZaHR0cDovL29jc3AubjJvLmRldjo4MDgxLzAUBgNVHREE
DTALgglsb2NhbGhvc3QwCgYIKoZIzj0EAwMDaAAwZQIxAINNACXw7sSMJOecZsxI
nhDSncqB4/WiKypfalmYzG3rkZMLGPeDp/h4nTCjLfXtzgIwe12mUTDyEPItCjrZ
7jKcn53HeiZXiZH3wRujtAWZ1BeRoHYBYrWLpE5snHUFs/ox
-----END CERTIFICATE-----
