Certificate:
    Data:
        Version: 3 (0x2)
        Serial Number: 4096 (0x1000)
    Signature Algorithm: ecdsa-with-SHA384
        Issuer: C=UA, ST=Kyiv, O=SYNRC, CN=CA
        Validity
            Not Before: Aug 24 10:41:10 2019 GMT
            Not After : Aug 23 10:41:10 2021 GMT
        Subject: C=UA, ST=Kyiv, O=SYNRC, CN=SERVER
        Subject Public Key Info:
            Public Key Algorithm: id-ecPublicKey
                Public-Key: (384 bit)
                pub: 
                    04:53:2d:fe:12:02:90:db:dd:d5:93:a6:6c:e7:91:
                    9a:3e:0b:a7:0a:1b:1f:95:1c:36:ca:7b:7e:f0:0d:
                    ec:0a:63:a0:cd:98:64:39:19:d9:5d:26:4b:86:54:
                    a8:0b:77:38:27:26:5b:a4:d1:15:f9:34:3c:1d:90:
                    b9:f6:e3:4f:f4:e7:ed:e4:81:ad:e4:4d:41:93:53:
                    28:21:ed:28:49:dc:5d:3e:70:54:74:56:8b:b2:d9:
                    2c:13:ed:cd:ea:ee:3d
                ASN1 OID: secp384r1
                NIST CURVE: P-384
        X509v3 extensions:
            X509v3 Basic Constraints: 
                CA:FALSE
            Netscape Cert Type: 
                SSL Server
            Netscape Comment: 
                Synrc Server Certificate
            X509v3 Subject Key Identifier: 
                78:43:59:49:6A:9B:24:9D:29:2E:35:F6:B7:0C:05:02:6B:04:63:6C
            X509v3 Authority Key Identifier: 
                keyid:2F:26:56:7A:C0:F0:D8:72:68:0E:72:6F:1A:04:DA:4A:9C:D3:C5:31
                DirName:/C=UA/ST=Kyiv/O=SYNRC/CN=CA
                serial:B4:83:6F:BC:26:73:4E:EC

            X509v3 Key Usage: critical
                Digital Signature, Key Encipherment
            X509v3 Extended Key Usage: 
                TLS Web Server Authentication
            X509v3 CRL Distribution Points: 

                Full Name:
                  URI:http://crl.n2o.dev:8081/eccroot.crl

            Authority Information Access: 
                CA Issuers - URI:http://crl.n2o.dev:8081/eccroot.crt
                OCSP - URI:http://ocsp.n2o.dev:8081/

            X509v3 Subject Alternative Name: 
                DNS:localhost
    Signature Algorithm: ecdsa-with-SHA384
         30:65:02:31:00:a3:13:39:50:8e:d4:bc:00:0d:22:d5:82:82:
         08:ec:22:dd:3b:af:05:e6:4c:c4:b6:2d:dc:8b:59:99:db:c0:
         97:b0:f7:0e:29:cf:b9:1a:e2:4c:2c:72:f7:dd:e6:2e:80:02:
         30:24:66:24:b9:d2:c6:60:1c:18:53:67:47:50:1e:82:d7:c7:
         94:5d:c1:9e:d7:78:94:33:19:15:e6:66:4a:27:d3:81:09:7e:
         b8:36:36:18:99:e5:43:1b:5e:e9:e5:6a:80
-----BEGIN CERTIFICATE-----
MIIDUzCCAtmgAwIBAgICEAAwCgYIKoZIzj0EAwMwOTELMAkGA1UEBhMCVUExDTAL
BgNVBAgMBEt5aXYxDjAMBgNVBAoMBVNZTlJDMQswCQYDVQQDDAJDQTAeFw0xOTA4
MjQxMDQxMTBaFw0yMTA4MjMxMDQxMTBaMD0xCzAJBgNVBAYTAlVBMQ0wCwYDVQQI
DARLeWl2MQ4wDAYDVQQKDAVTWU5SQzEPMA0GA1UEAwwGU0VSVkVSMHYwEAYHKoZI
zj0CAQYFK4EEACIDYgAEUy3+EgKQ293Vk6Zs55GaPgunChsflRw2ynt+8A3sCmOg
zZhkORnZXSZLhlSoC3c4JyZbpNEV+TQ8HZC59uNP9Oft5IGt5E1Bk1MoIe0oSdxd
PnBUdFaLstksE+3N6u49o4IBrjCCAaowCQYDVR0TBAIwADARBglghkgBhvhCAQEE
BAMCBkAwJwYJYIZIAYb4QgENBBoWGFN5bnJjIFNlcnZlciBDZXJ0aWZpY2F0ZTAd
BgNVHQ4EFgQUeENZSWqbJJ0pLjX2twwFAmsEY2wwaQYDVR0jBGIwYIAULyZWesDw
2HJoDnJvGgTaSpzTxTGhPaQ7MDkxCzAJBgNVBAYTAlVBMQ0wCwYDVQQIDARLeWl2
MQ4wDAYDVQQKDAVTWU5SQzELMAkGA1UEAwwCQ0GCCQC0g2+8JnNO7DAOBgNVHQ8B
Af8EBAMCBaAwEwYDVR0lBAwwCgYIKwYBBQUHAwEwNAYDVR0fBC0wKzApoCegJYYj
aHR0cDovL2NybC5uMm8uZGV2OjgwODEvZWNjcm9vdC5jcmwwZgYIKwYBBQUHAQEE
WjBYMC8GCCsGAQUFBzAChiNodHRwOi8vY3JsLm4yby5kZXY6ODA4MS9lY2Nyb290
LmNydDAlBggrBgEFBQcwAYYZaHR0cDovL29jc3AubjJvLmRldjo4MDgxLzAUBgNV
HREEDTALgglsb2NhbGhvc3QwCgYIKoZIzj0EAwMDaAAwZQIxAKMTOVCO1LwADSLV
goII7CLdO68F5kzEti3ci1mZ28CXsPcOKc+5GuJMLHL33eYugAIwJGYkudLGYBwY
U2dHUB6C18eUXcGe13iUMxkV5mZKJ9OBCX64NjYYmeVDG17p5WqA
-----END CERTIFICATE-----
